target datalayout = "e-m:e-p270:32:32-p271:32:32-p272:64:64-i64:64-i128:128-f80:128-n8:16:32:64-S128"
target triple = "x86_64-pc-linux-gnu"

%struct.X509_req_st = type { ptr, ptr, ptr, i32 }
%struct.X509_req_info_st = type { %struct.ASN1_ENCODING_st, ptr, ptr, ptr, ptr }
%struct.ASN1_ENCODING_st = type { ptr, i64, i32 }
%struct.asn1_string_st = type { i32, i32, ptr, i64 }

@.str = private unnamed_addr constant [126 x i8] c"generated/home/dtcxzyw/WorkSpace/Projects/compilers/llvm-opt-benchmark/bench/libquic/libquic/boringssl/crypto/x509/x509_req.c\00", align 1

; Function Attrs: nounwind uwtable
define hidden ptr @X509_to_X509_REQ(ptr noundef %0, ptr noundef %1, ptr noundef %2) #0 {
  %4 = alloca ptr, align 8
  %5 = alloca ptr, align 8
  %6 = alloca ptr, align 8
  %7 = alloca ptr, align 8
  %8 = alloca ptr, align 8
  %9 = alloca ptr, align 8
  %10 = alloca i32, align 4
  %11 = alloca ptr, align 8
  %12 = alloca i32, align 4
  store ptr %0, ptr %5, align 8, !tbaa !6
  store ptr %1, ptr %6, align 8, !tbaa !11
  store ptr %2, ptr %7, align 8, !tbaa !13
  call void @llvm.lifetime.start.p0(i64 8, ptr %8) #4
  call void @llvm.lifetime.start.p0(i64 8, ptr %9) #4
  call void @llvm.lifetime.start.p0(i64 4, ptr %10) #4
  call void @llvm.lifetime.start.p0(i64 8, ptr %11) #4
  %13 = call ptr @X509_REQ_new()
  store ptr %13, ptr %8, align 8, !tbaa !15
  %14 = load ptr, ptr %8, align 8, !tbaa !15
  %15 = icmp eq ptr %14, null
  br i1 %15, label %16, label %17

16:                                               ; preds = %3
  call void @ERR_put_error(i32 noundef 11, i32 noundef 0, i32 noundef 65, ptr noundef @.str, i32 noundef 78)
  br label %77

17:                                               ; preds = %3
  %18 = load ptr, ptr %8, align 8, !tbaa !15
  %19 = getelementptr inbounds nuw %struct.X509_req_st, ptr %18, i32 0, i32 0
  %20 = load ptr, ptr %19, align 8, !tbaa !17
  store ptr %20, ptr %9, align 8, !tbaa !23
  %21 = load ptr, ptr %9, align 8, !tbaa !23
  %22 = getelementptr inbounds nuw %struct.X509_req_info_st, ptr %21, i32 0, i32 1
  %23 = load ptr, ptr %22, align 8, !tbaa !24
  %24 = getelementptr inbounds nuw %struct.asn1_string_st, ptr %23, i32 0, i32 0
  store i32 1, ptr %24, align 8, !tbaa !32
  %25 = call noalias ptr @malloc(i64 noundef 1) #5
  %26 = load ptr, ptr %9, align 8, !tbaa !23
  %27 = getelementptr inbounds nuw %struct.X509_req_info_st, ptr %26, i32 0, i32 1
  %28 = load ptr, ptr %27, align 8, !tbaa !24
  %29 = getelementptr inbounds nuw %struct.asn1_string_st, ptr %28, i32 0, i32 2
  store ptr %25, ptr %29, align 8, !tbaa !34
  %30 = load ptr, ptr %9, align 8, !tbaa !23
  %31 = getelementptr inbounds nuw %struct.X509_req_info_st, ptr %30, i32 0, i32 1
  %32 = load ptr, ptr %31, align 8, !tbaa !24
  %33 = getelementptr inbounds nuw %struct.asn1_string_st, ptr %32, i32 0, i32 2
  %34 = load ptr, ptr %33, align 8, !tbaa !34
  %35 = icmp eq ptr %34, null
  br i1 %35, label %36, label %37

36:                                               ; preds = %17
  br label %77

37:                                               ; preds = %17
  %38 = load ptr, ptr %9, align 8, !tbaa !23
  %39 = getelementptr inbounds nuw %struct.X509_req_info_st, ptr %38, i32 0, i32 1
  %40 = load ptr, ptr %39, align 8, !tbaa !24
  %41 = getelementptr inbounds nuw %struct.asn1_string_st, ptr %40, i32 0, i32 2
  %42 = load ptr, ptr %41, align 8, !tbaa !34
  %43 = getelementptr inbounds i8, ptr %42, i64 0
  store i8 0, ptr %43, align 1, !tbaa !35
  %44 = load ptr, ptr %8, align 8, !tbaa !15
  %45 = load ptr, ptr %5, align 8, !tbaa !6
  %46 = call ptr @X509_get_subject_name(ptr noundef %45)
  %47 = call i32 @X509_REQ_set_subject_name(ptr noundef %44, ptr noundef %46)
  %48 = icmp ne i32 %47, 0
  br i1 %48, label %50, label %49

49:                                               ; preds = %37
  br label %77

50:                                               ; preds = %37
  %51 = load ptr, ptr %5, align 8, !tbaa !6
  %52 = call ptr @X509_get_pubkey(ptr noundef %51)
  store ptr %52, ptr %11, align 8, !tbaa !11
  %53 = load ptr, ptr %11, align 8, !tbaa !11
  %54 = icmp eq ptr %53, null
  br i1 %54, label %55, label %56

55:                                               ; preds = %50
  br label %77

56:                                               ; preds = %50
  %57 = load ptr, ptr %8, align 8, !tbaa !15
  %58 = load ptr, ptr %11, align 8, !tbaa !11
  %59 = call i32 @X509_REQ_set_pubkey(ptr noundef %57, ptr noundef %58)
  store i32 %59, ptr %10, align 4, !tbaa !36
  %60 = load ptr, ptr %11, align 8, !tbaa !11
  call void @EVP_PKEY_free(ptr noundef %60)
  %61 = load i32, ptr %10, align 4, !tbaa !36
  %62 = icmp ne i32 %61, 0
  br i1 %62, label %64, label %63

63:                                               ; preds = %56
  br label %77

64:                                               ; preds = %56
  %65 = load ptr, ptr %6, align 8, !tbaa !11
  %66 = icmp ne ptr %65, null
  br i1 %66, label %67, label %75

67:                                               ; preds = %64
  %68 = load ptr, ptr %8, align 8, !tbaa !15
  %69 = load ptr, ptr %6, align 8, !tbaa !11
  %70 = load ptr, ptr %7, align 8, !tbaa !13
  %71 = call i32 @X509_REQ_sign(ptr noundef %68, ptr noundef %69, ptr noundef %70)
  %72 = icmp ne i32 %71, 0
  br i1 %72, label %74, label %73

73:                                               ; preds = %67
  br label %77

74:                                               ; preds = %67
  br label %75

75:                                               ; preds = %74, %64
  %76 = load ptr, ptr %8, align 8, !tbaa !15
  store ptr %76, ptr %4, align 8
  store i32 1, ptr %12, align 4
  br label %79

77:                                               ; preds = %73, %63, %55, %49, %36, %16
  %78 = load ptr, ptr %8, align 8, !tbaa !15
  call void @X509_REQ_free(ptr noundef %78)
  store ptr null, ptr %4, align 8
  store i32 1, ptr %12, align 4
  br label %79

79:                                               ; preds = %77, %75
  call void @llvm.lifetime.end.p0(i64 8, ptr %11) #4
  call void @llvm.lifetime.end.p0(i64 4, ptr %10) #4
  call void @llvm.lifetime.end.p0(i64 8, ptr %9) #4
  call void @llvm.lifetime.end.p0(i64 8, ptr %8) #4
  %80 = load ptr, ptr %4, align 8
  ret ptr %80
}