; Function Attrs: nounwind uwtable
define hidden ptr @X509_to_X509_REQ(ptr noundef %0, ptr noundef %1, ptr noundef %2) local_unnamed_addr #0 {
  %4 = tail call ptr @X509_REQ_new() #7
  %5 = icmp eq ptr %4, null
  br i1 %5, label %6, label %7

6:                                                ; preds = %3
  tail call void @ERR_put_error(i32 noundef 11, i32 noundef 0, i32 noundef 65, ptr noundef nonnull @.str, i32 noundef 78) #7
  br label %25

7:                                                ; preds = %3
  %8 = load ptr, ptr %4, align 8, !tbaa !6
  %9 = getelementptr inbounds nuw i8, ptr %8, i64 24
  %10 = load ptr, ptr %9, align 8, !tbaa !15
  store i32 1, ptr %10, align 8, !tbaa !23
  %11 = tail call noalias dereferenceable_or_null(1) ptr @malloc(i64 noundef 1) #8
  %12 = getelementptr inbounds nuw i8, ptr %10, i64 8
  store ptr %11, ptr %12, align 8, !tbaa !25
  %13 = icmp eq ptr %11, null
  br i1 %13, label %25, label %14

14:                                               ; preds = %7
  store i8 0, ptr %11, align 1, !tbaa !26
  %15 = tail call ptr @X509_get_subject_name(ptr noundef %0) #7
  %16 = tail call i32 @X509_REQ_set_subject_name(ptr noundef nonnull %4, ptr noundef %15) #7
  %.not = icmp eq i32 %16, 0
  br i1 %.not, label %25, label %17

17:                                               ; preds = %14
  %18 = tail call ptr @X509_get_pubkey(ptr noundef %0) #7
  %19 = icmp eq ptr %18, null
  br i1 %19, label %25, label %20

20:                                               ; preds = %17
  %21 = tail call i32 @X509_REQ_set_pubkey(ptr noundef nonnull %4, ptr noundef nonnull %18) #7
  tail call void @EVP_PKEY_free(ptr noundef nonnull %18) #7
  %.not24 = icmp eq i32 %21, 0
  br i1 %.not24, label %25, label %22

22:                                               ; preds = %20
  %.not25 = icmp eq ptr %1, null
  br i1 %.not25, label %26, label %23

23:                                               ; preds = %22
  %24 = tail call i32 @X509_REQ_sign(ptr noundef nonnull %4, ptr noundef nonnull %1, ptr noundef %2) #7
  %.not26 = icmp eq i32 %24, 0
  br i1 %.not26, label %25, label %26

25:                                               ; preds = %23, %20, %17, %14, %7, %6
  tail call void @X509_REQ_free(ptr noundef %4) #7
  br label %26

26:                                               ; preds = %22, %23, %25
  %.0 = phi ptr [ null, %25 ], [ %4, %23 ], [ %4, %22 ]
  ret ptr %.0
}